target datalayout = "e-m:e-p270:32:32-p271:32:32-p272:64:64-i64:64-i128:128-f80:128-n8:16:32:64-S128"
target triple = "x86_64-pc-linux-gnu"

%class.Metadata = type { ptr }
%class.AccessFlags = type { i32 }
%class.Method = type { %class.Metadata, ptr, ptr, ptr, ptr, %class.AccessFlags, i32, %class.MethodFlags, i16, %class.JfrTraceFlag, ptr, ptr, ptr, ptr }
%class.MethodFlags = type { i32 }
%class.JfrTraceFlag = type { i16 }
%class.InvocationCounter = type { i32 }
%class.MethodCounters = type <{ %class.Metadata, %class.InvocationCounter, %class.InvocationCounter, i64, float, i32, i32, i32, i16, i16, i8, i8, [2 x i8] }>

; Function Attrs: mustprogress nounwind uwtable
define linkonce_odr hidden noundef zeroext i1 @_ZN13MethodHandles34is_signature_polymorphic_intrinsicE13vmIntrinsicID(i32 noundef %0) #1 comdat align 2 {
  %2 = alloca i32, align 4
  store i32 %0, ptr %2, align 4
  %3 = load i32, ptr %2, align 4
  %4 = icmp ne i32 %3, 396
  ret i1 %4
}

; Function Attrs: mustprogress nounwind uwtable
define linkonce_odr hidden noundef zeroext i1 @_ZN13MethodHandles24is_signature_polymorphicE13vmIntrinsicID(i32 noundef %0) #1 comdat align 2 {
  %2 = alloca i32, align 4
  store i32 %0, ptr %2, align 4
  %3 = load i32, ptr %2, align 4
  %4 = icmp sge i32 %3, 396
  br i1 %4, label %5, label %8

5:                                                ; preds = %1
  %6 = load i32, ptr %2, align 4
  %7 = icmp sle i32 %6, 402
  br label %8

8:                                                ; preds = %5, %1
  %9 = phi i1 [ false, %1 ], [ %7, %5 ]
  ret i1 %9
}

; Function Attrs: mustprogress nounwind uwtable
define linkonce_odr hidden noundef i32 @_ZNK6Method12intrinsic_idEv(ptr noundef nonnull align 8 dereferenceable(88) %0) #1 comdat align 2 {
  %2 = alloca ptr, align 8
  store ptr %0, ptr %2, align 8
  %3 = load ptr, ptr %2, align 8
  %4 = getelementptr inbounds %class.Method, ptr %3, i32 0, i32 8
  %5 = load i16, ptr %4, align 4
  %6 = zext i16 %5 to i32
  ret i32 %6
}

; Function Attrs: mustprogress nounwind uwtable
define linkonce_odr hidden noundef zeroext i1 @_ZNK11AccessFlags12is_syntheticEv(ptr noundef nonnull align 4 dereferenceable(4) %0) #1 comdat align 2 {
  %2 = alloca ptr, align 8
  store ptr %0, ptr %2, align 8
  %3 = load ptr, ptr %2, align 8
  %4 = getelementptr inbounds %class.AccessFlags, ptr %3, i32 0, i32 0
  %5 = load i32, ptr %4, align 4
  %6 = and i32 %5, 4096
  %7 = icmp ne i32 %6, 0
  ret i1 %7
}

; Function Attrs: mustprogress nounwind uwtable
define linkonce_odr hidden i32 @_ZNK6Method12access_flagsEv(ptr noundef nonnull align 8 dereferenceable(88) %0) #1 comdat align 2 {
  %2 = alloca %class.AccessFlags, align 4
  %3 = alloca ptr, align 8
  store ptr %0, ptr %3, align 8
  %4 = load ptr, ptr %3, align 8
  %5 = getelementptr inbounds %class.Method, ptr %4, i32 0, i32 5
  call void @llvm.memcpy.p0.p0.i64(ptr align 4 %2, ptr align 8 %5, i64 4, i1 false)
  %6 = getelementptr inbounds %class.AccessFlags, ptr %2, i32 0, i32 0
  %7 = load i32, ptr %6, align 4
  ret i32 %7
}

; Function Attrs: mustprogress nounwind uwtable
define linkonce_odr hidden noundef zeroext i1 @_ZNK6Method32is_continuation_native_intrinsicEv(ptr noundef nonnull align 8 dereferenceable(88) %0) #1 comdat align 2 {
  %2 = alloca ptr, align 8
  store ptr %0, ptr %2, align 8
  %3 = load ptr, ptr %2, align 8
  %4 = call noundef i32 @_ZNK6Method12intrinsic_idEv(ptr noundef nonnull align 8 dereferenceable(88) %3)
  %5 = icmp eq i32 %4, 198
  br i1 %5, label %9, label %6

6:                                                ; preds = %1
  %7 = call noundef i32 @_ZNK6Method12intrinsic_idEv(ptr noundef nonnull align 8 dereferenceable(88) %3)
  %8 = icmp eq i32 %7, 199
  br label %9

9:                                                ; preds = %6, %1
  %10 = phi i1 [ true, %1 ], [ %8, %6 ]
  ret i1 %10
}

; Function Attrs: mustprogress nounwind uwtable
define hidden noundef zeroext i1 @_ZNK6Method26is_method_handle_intrinsicEv(ptr noundef nonnull align 8 dereferenceable(88) %0) #1 align 2 {
  %2 = alloca ptr, align 8
  %3 = alloca i32, align 4
  store ptr %0, ptr %2, align 8
  %4 = load ptr, ptr %2, align 8
  %5 = call noundef i32 @_ZNK6Method12intrinsic_idEv(ptr noundef nonnull align 8 dereferenceable(88) %4)
  store i32 %5, ptr %3, align 4
  %6 = load i32, ptr %3, align 4
  %7 = call noundef zeroext i1 @_ZN13MethodHandles24is_signature_polymorphicE13vmIntrinsicID(i32 noundef %6)
  br i1 %7, label %8, label %11

8:                                                ; preds = %1
  %9 = load i32, ptr %3, align 4
  %10 = call noundef zeroext i1 @_ZN13MethodHandles34is_signature_polymorphic_intrinsicE13vmIntrinsicID(i32 noundef %9)
  br label %11

11:                                               ; preds = %8, %1
  %12 = phi i1 [ false, %1 ], [ %10, %8 ]
  ret i1 %12
}

; Function Attrs: mustprogress nounwind uwtable
define linkonce_odr hidden noundef zeroext i1 @_ZNK11MethodFlags20is_not_c2_compilableEv(ptr noundef nonnull align 4 dereferenceable(4) %0) #1 comdat align 2 {
  %2 = alloca ptr, align 8
  store ptr %0, ptr %2, align 8
  %3 = load ptr, ptr %2, align 8
  %4 = getelementptr inbounds %class.MethodFlags, ptr %3, i32 0, i32 0
  %5 = load i32, ptr %4, align 4
  %6 = and i32 %5, 256
  %7 = icmp ne i32 %6, 0
  ret i1 %7
}

; Function Attrs: mustprogress nounwind uwtable
define linkonce_odr hidden noundef zeroext i1 @_ZNK11MethodFlags20is_not_c1_compilableEv(ptr noundef nonnull align 4 dereferenceable(4) %0) #1 comdat align 2 {
  %2 = alloca ptr, align 8
  store ptr %0, ptr %2, align 8
  %3 = load ptr, ptr %2, align 8
  %4 = getelementptr inbounds %class.MethodFlags, ptr %3, i32 0, i32 0
  %5 = load i32, ptr %4, align 4
  %6 = and i32 %5, 512
  %7 = icmp ne i32 %6, 0
  ret i1 %7
}

; Function Attrs: mustprogress nounwind uwtable
define linkonce_odr hidden noundef zeroext i1 @_ZNK6Method12is_syntheticEv(ptr noundef nonnull align 8 dereferenceable(88) %0) #1 comdat align 2 {
  %2 = alloca ptr, align 8
  %3 = alloca %class.AccessFlags, align 4
  store ptr %0, ptr %2, align 8
  %4 = load ptr, ptr %2, align 8
  %5 = call i32 @_ZNK6Method12access_flagsEv(ptr noundef nonnull align 8 dereferenceable(88) %4)
  %6 = getelementptr inbounds %class.AccessFlags, ptr %3, i32 0, i32 0
  store i32 %5, ptr %6, align 4
  %7 = call noundef zeroext i1 @_ZNK11AccessFlags12is_syntheticEv(ptr noundef nonnull align 4 dereferenceable(4) %3)
  ret i1 %7
}

; Function Attrs: mustprogress nounwind uwtable
define linkonce_odr hidden noundef zeroext i1 @_ZNK6Method27is_special_native_intrinsicEv(ptr noundef nonnull align 8 dereferenceable(88) %0) #1 comdat align 2 {
  %2 = alloca ptr, align 8
  store ptr %0, ptr %2, align 8
  %3 = load ptr, ptr %2, align 8
  %4 = call noundef zeroext i1 @_ZNK6Method26is_method_handle_intrinsicEv(ptr noundef nonnull align 8 dereferenceable(88) %3)
  br i1 %4, label %7, label %5

5:                                                ; preds = %1
  %6 = call noundef zeroext i1 @_ZNK6Method32is_continuation_native_intrinsicEv(ptr noundef nonnull align 8 dereferenceable(88) %3)
  br label %7

7:                                                ; preds = %5, %1
  %8 = phi i1 [ true, %1 ], [ %6, %5 ]
  ret i1 %8
}

; Function Attrs: mustprogress nounwind uwtable
define linkonce_odr hidden noundef zeroext i16 @_ZNK14MethodCounters21number_of_breakpointsEv(ptr noundef nonnull align 8 dereferenceable(46) %0) #1 comdat align 2 {
  %2 = alloca ptr, align 8
  store ptr %0, ptr %2, align 8
  %3 = load ptr, ptr %2, align 8
  %4 = getelementptr inbounds %class.MethodCounters, ptr %3, i32 0, i32 9
  %5 = load i16, ptr %4, align 2
  ret i16 %5
}

; Function Attrs: mustprogress nounwind uwtable
define linkonce_odr hidden noundef ptr @_ZNK6Method15method_countersEv(ptr noundef nonnull align 8 dereferenceable(88) %0) #1 comdat align 2 {
  %2 = alloca ptr, align 8
  store ptr %0, ptr %2, align 8
  %3 = load ptr, ptr %2, align 8
  %4 = getelementptr inbounds %class.Method, ptr %3, i32 0, i32 3
  %5 = load ptr, ptr %4, align 8
  ret ptr %5
}

; Function Attrs: mustprogress nounwind uwtable
define linkonce_odr hidden noundef zeroext i1 @_Z13is_c2_compilei(i32 noundef %0) #1 comdat {
  %2 = alloca i32, align 4
  store i32 %0, ptr %2, align 4
  %3 = load i32, ptr %2, align 4
  %4 = icmp eq i32 %3, 4
  ret i1 %4
}

; Function Attrs: mustprogress nounwind uwtable
define linkonce_odr hidden noundef zeroext i1 @_Z13is_c1_compilei(i32 noundef %0) #1 comdat {
  %2 = alloca i32, align 4
  store i32 %0, ptr %2, align 4
  %3 = load i32, ptr %2, align 4
  %4 = icmp sgt i32 %3, 0
  br i1 %4, label %5, label %8

5:                                                ; preds = %1
  %6 = load i32, ptr %2, align 4
  %7 = icmp slt i32 %6, 4
  br label %8

8:                                                ; preds = %5, %1
  %9 = phi i1 [ false, %1 ], [ %7, %5 ]
  ret i1 %9
}

; Function Attrs: mustprogress nounwind uwtable
define linkonce_odr hidden noundef zeroext i1 @_ZNK6Method20is_not_c2_compilableEv(ptr noundef nonnull align 8 dereferenceable(88) %0) #1 comdat align 2 {
  %2 = alloca ptr, align 8
  store ptr %0, ptr %2, align 8
  %3 = load ptr, ptr %2, align 8
  %4 = getelementptr inbounds %class.Method, ptr %3, i32 0, i32 7
  %5 = call noundef zeroext i1 @_ZNK11MethodFlags20is_not_c2_compilableEv(ptr noundef nonnull align 4 dereferenceable(4) %4)
  ret i1 %5
}

; Function Attrs: mustprogress nounwind uwtable
define linkonce_odr hidden noundef zeroext i1 @_ZNK6Method20is_not_c1_compilableEv(ptr noundef nonnull align 8 dereferenceable(88) %0) #1 comdat align 2 {
  %2 = alloca ptr, align 8
  store ptr %0, ptr %2, align 8
  %3 = load ptr, ptr %2, align 8
  %4 = getelementptr inbounds %class.Method, ptr %3, i32 0, i32 7
  %5 = call noundef zeroext i1 @_ZNK11MethodFlags20is_not_c1_compilableEv(ptr noundef nonnull align 4 dereferenceable(4) %4)
  ret i1 %5
}

; Function Attrs: mustprogress nounwind uwtable
define hidden noundef zeroext i1 @_ZNK6Method20is_always_compilableEv(ptr noundef nonnull align 8 dereferenceable(88) %0) #1 align 2 {
  %2 = alloca i1, align 1
  %3 = alloca ptr, align 8
  store ptr %0, ptr %3, align 8
  %4 = load ptr, ptr %3, align 8
  %5 = call noundef zeroext i1 @_ZNK6Method27is_special_native_intrinsicEv(ptr noundef nonnull align 8 dereferenceable(88) %4)
  br i1 %5, label %6, label %9

6:                                                ; preds = %1
  %7 = call noundef zeroext i1 @_ZNK6Method12is_syntheticEv(ptr noundef nonnull align 8 dereferenceable(88) %4)
  br i1 %7, label %8, label %9

8:                                                ; preds = %6
  store i1 true, ptr %2, align 1
  br label %10

9:                                                ; preds = %6, %1
  store i1 false, ptr %2, align 1
  br label %10

10:                                               ; preds = %9, %8
  %11 = load i1, ptr %2, align 1
  ret i1 %11
}

; Function Attrs: mustprogress nounwind uwtable
define linkonce_odr hidden noundef zeroext i16 @_ZNK6Method21number_of_breakpointsEv(ptr noundef nonnull align 8 dereferenceable(88) %0) #1 comdat align 2 {
  %2 = alloca i16, align 2
  %3 = alloca ptr, align 8
  %4 = alloca ptr, align 8
  store ptr %0, ptr %3, align 8
  %5 = load ptr, ptr %3, align 8
  %6 = call noundef ptr @_ZNK6Method15method_countersEv(ptr noundef nonnull align 8 dereferenceable(88) %5)
  store ptr %6, ptr %4, align 8
  %7 = load ptr, ptr %4, align 8
  %8 = icmp eq ptr %7, null
  br i1 %8, label %9, label %10

9:                                                ; preds = %1
  store i16 0, ptr %2, align 2
  br label %13

10:                                               ; preds = %1
  %11 = load ptr, ptr %4, align 8
  %12 = call noundef zeroext i16 @_ZNK14MethodCounters21number_of_breakpointsEv(ptr noundef nonnull align 8 dereferenceable(46) %11)
  store i16 %12, ptr %2, align 2
  br label %13

13:                                               ; preds = %10, %9
  %14 = load i16, ptr %2, align 2
  ret i16 %14
}

; Function Attrs: mustprogress nounwind uwtable
define hidden noundef zeroext i1 @_ZNK6Method17is_not_compilableEi(ptr noundef nonnull align 8 dereferenceable(88) %0, i32 noundef %1) #1 align 2 {
  %3 = alloca i1, align 1
  %4 = alloca ptr, align 8
  %5 = alloca i32, align 4
  store ptr %0, ptr %4, align 8
  store i32 %1, ptr %5, align 4
  %6 = load ptr, ptr %4, align 8
  %7 = call noundef zeroext i16 @_ZNK6Method21number_of_breakpointsEv(ptr noundef nonnull align 8 dereferenceable(88) %6)
  %8 = zext i16 %7 to i32
  %9 = icmp sgt i32 %8, 0
  br i1 %9, label %10, label %11

10:                                               ; preds = %2
  store i1 true, ptr %3, align 1
  br label %34

11:                                               ; preds = %2
  %12 = call noundef zeroext i1 @_ZNK6Method20is_always_compilableEv(ptr noundef nonnull align 8 dereferenceable(88) %6)
  br i1 %12, label %13, label %14

13:                                               ; preds = %11
  store i1 false, ptr %3, align 1
  br label %34

14:                                               ; preds = %11
  %15 = load i32, ptr %5, align 4
  %16 = icmp eq i32 %15, -1
  br i1 %16, label %17, label %23

17:                                               ; preds = %14
  %18 = call noundef zeroext i1 @_ZNK6Method20is_not_c1_compilableEv(ptr noundef nonnull align 8 dereferenceable(88) %6)
  br i1 %18, label %19, label %21

19:                                               ; preds = %17
  %20 = call noundef zeroext i1 @_ZNK6Method20is_not_c2_compilableEv(ptr noundef nonnull align 8 dereferenceable(88) %6)
  br label %21

21:                                               ; preds = %19, %17
  %22 = phi i1 [ false, %17 ], [ %20, %19 ]
  store i1 %22, ptr %3, align 1
  br label %34

23:                                               ; preds = %14
  %24 = load i32, ptr %5, align 4
  %25 = call noundef zeroext i1 @_Z13is_c1_compilei(i32 noundef %24)
  br i1 %25, label %26, label %28

26:                                               ; preds = %23
  %27 = call noundef zeroext i1 @_ZNK6Method20is_not_c1_compilableEv(ptr noundef nonnull align 8 dereferenceable(88) %6)
  store i1 %27, ptr %3, align 1
  br label %34

28:                                               ; preds = %23
  %29 = load i32, ptr %5, align 4
  %30 = call noundef zeroext i1 @_Z13is_c2_compilei(i32 noundef %29)
  br i1 %30, label %31, label %33

31:                                               ; preds = %28
  %32 = call noundef zeroext i1 @_ZNK6Method20is_not_c2_compilableEv(ptr noundef nonnull align 8 dereferenceable(88) %6)
  store i1 %32, ptr %3, align 1
  br label %34

33:                                               ; preds = %28
  store i1 false, ptr %3, align 1
  br label %34

34:                                               ; preds = %33, %31, %26, %21, %13, %10
  %35 = load i1, ptr %3, align 1
  ret i1 %35
}