; Function Attrs: mustprogress nofree norecurse nosync nounwind willreturn memory(read, inaccessiblemem: none) uwtable
define hidden noundef zeroext i1 @_ZNK6Method17is_not_compilableEi(ptr nocapture noundef nonnull readonly align 8 dereferenceable(88) %0, i32 noundef %1) local_unnamed_addr #7 align 2 {
  %3 = getelementptr inbounds i8, ptr %0, i64 24
  %4 = load ptr, ptr %3, align 8
  %5 = icmp eq ptr %4, null
  br i1 %5, label %_ZNK6Method21number_of_breakpointsEv.exit.thread, label %_ZNK6Method21number_of_breakpointsEv.exit

_ZNK6Method21number_of_breakpointsEv.exit:        ; preds = %2
  %6 = getelementptr inbounds i8, ptr %4, i64 42
  %7 = load i16, ptr %6, align 2
  %.not = icmp eq i16 %7, 0
  br i1 %.not, label %_ZNK6Method21number_of_breakpointsEv.exit.thread, label %_ZNK6Method20is_always_compilableEv.exit.thread

_ZNK6Method21number_of_breakpointsEv.exit.thread: ; preds = %2, %_ZNK6Method21number_of_breakpointsEv.exit
  %8 = getelementptr inbounds i8, ptr %0, i64 52
  %9 = load i16, ptr %8, align 4
  %10 = zext i16 %9 to i32
  %11 = add nsw i32 %10, -396
  %12 = icmp ult i32 %11, 7
  %13 = icmp ne i16 %9, 396
  %spec.select.i.i.i = and i1 %13, %12
  %14 = and i16 %9, -2
  %spec.select.i1.i.i = icmp eq i16 %14, 198
  %or.cond.i = or i1 %spec.select.i1.i.i, %spec.select.i.i.i
  br i1 %or.cond.i, label %_ZNK6Method27is_special_native_intrinsicEv.exit.thread.i, label %_ZNK6Method20is_always_compilableEv.exit

_ZNK6Method27is_special_native_intrinsicEv.exit.thread.i: ; preds = %_ZNK6Method21number_of_breakpointsEv.exit.thread
  %15 = getelementptr inbounds i8, ptr %0, i64 40
  %.sroa.0.0.copyload.i.i.i = load i32, ptr %15, align 8
  %16 = and i32 %.sroa.0.0.copyload.i.i.i, 4096
  %.not.i = icmp eq i32 %16, 0
  br i1 %.not.i, label %_ZNK6Method20is_always_compilableEv.exit, label %_ZNK6Method20is_always_compilableEv.exit.thread

_ZNK6Method20is_always_compilableEv.exit:         ; preds = %_ZNK6Method27is_special_native_intrinsicEv.exit.thread.i, %_ZNK6Method21number_of_breakpointsEv.exit.thread
  %17 = icmp eq i32 %1, -1
  br i1 %17, label %18, label %25

18:                                               ; preds = %_ZNK6Method20is_always_compilableEv.exit
  %19 = getelementptr inbounds i8, ptr %0, i64 48
  %20 = load i32, ptr %19, align 8
  %21 = and i32 %20, 512
  %.not9 = icmp eq i32 %21, 0
  br i1 %.not9, label %_ZNK6Method20is_always_compilableEv.exit.thread, label %22

22:                                               ; preds = %18
  %23 = and i32 %20, 256
  %24 = icmp ne i32 %23, 0
  br label %_ZNK6Method20is_always_compilableEv.exit.thread

25:                                               ; preds = %_ZNK6Method20is_always_compilableEv.exit
  %26 = add i32 %1, -1
  %27 = icmp ult i32 %26, 3
  br i1 %27, label %28, label %33

28:                                               ; preds = %25
  %29 = getelementptr inbounds i8, ptr %0, i64 48
  %30 = load i32, ptr %29, align 8
  %31 = and i32 %30, 512
  %32 = icmp ne i32 %31, 0
  br label %_ZNK6Method20is_always_compilableEv.exit.thread

33:                                               ; preds = %25
  %34 = icmp eq i32 %1, 4
  br i1 %34, label %35, label %_ZNK6Method20is_always_compilableEv.exit.thread

35:                                               ; preds = %33
  %36 = getelementptr inbounds i8, ptr %0, i64 48
  %37 = load i32, ptr %36, align 8
  %38 = and i32 %37, 256
  %39 = icmp ne i32 %38, 0
  br label %_ZNK6Method20is_always_compilableEv.exit.thread

_ZNK6Method20is_always_compilableEv.exit.thread:  ; preds = %_ZNK6Method27is_special_native_intrinsicEv.exit.thread.i, %33, %18, %22, %_ZNK6Method21number_of_breakpointsEv.exit, %35, %28
  %.0 = phi i1 [ %32, %28 ], [ %39, %35 ], [ true, %_ZNK6Method21number_of_breakpointsEv.exit ], [ false, %18 ], [ %24, %22 ], [ false, %33 ], [ false, %_ZNK6Method27is_special_native_intrinsicEv.exit.thread.i ]
  ret i1 %.0
}